target datalayout = "e-m:e-p270:32:32-p271:32:32-p272:64:64-i64:64-i128:128-f80:128-n8:16:32:64-S128"
target triple = "x86_64-pc-linux-gnu"

%struct.expert_field = type { i32, i32 }
%struct._packet_info = type { ptr, ptr, i32, i32, %struct.nstime_t, %struct.nstime_t, %struct.nstime_t, i8, ptr, ptr, ptr, ptr, %struct._address, %struct._address, %struct._address, %struct._address, %struct._address, %struct._address, i32, ptr, i8, [3 x i8], %struct.anon, i32, i32, i32, i32, ptr, i8, ptr, ptr, i16, i16, i32, i32, i16, i32, i32, ptr, ptr, ptr, i8, i8, i16, i16, i16, i32, i16, i16, ptr, ptr, ptr, ptr, ptr, i32, i32 }
%struct.nstime_t = type { i64, i32 }
%struct._address = type { i32, i32, ptr, ptr }
%struct.anon = type { i8, [3 x i8] }

@hf_PCEPF_SUBOBJ = internal global i32 0, align 4
@hf_PCEPF_SUBOBJ_7F = internal global i32 0, align 4
@hf_PCEPF_SUBOBJ_UNNUM_INTERFACEID = internal global i32 0, align 4
@hf_PCEPF_SUBOBJ_XRO = internal global i32 0, align 4
@hf_pcep_subobj_unnumb_interfaceID_length = internal global i32 0, align 4
@hf_pcep_subobj_unnumb_interfaceID_reserved = internal global i32 0, align 4
@hf_pcep_subobj_unnumb_interfaceID_flags = internal global i32 0, align 4
@hf_pcep_subobj_unnumb_interfaceID_reserved_rrobj = internal global i32 0, align 4
@hf_pcep_subobj_unnumb_interfaceID_reserved_xroobj = internal global i32 0, align 4
@hf_pcep_subobj_unnumb_interfaceID_attribute = internal global i32 0, align 4
@hf_pcep_subobj_unnumb_interfaceID_router_id = internal global i32 0, align 4
@hf_pcep_subobj_unnumb_interfaceID_interface_id = internal global i32 0, align 4
@hf_pcep_subobj_unnumb_interfaceID_l = internal global i32 0, align 4
@hf_pcep_subobj_iro_unnumb_interfaceID_l = internal global i32 0, align 4
@hf_pcep_subobj_unnumb_interfaceID_x = internal global i32 0, align 4
@ei_pcep_subobject_bad_length = internal global %struct.expert_field zeroinitializer, align 4
@ei_pcep_non_defined_subobject = internal global %struct.expert_field zeroinitializer, align 4
@.str.723 = private unnamed_addr constant [38 x i8] c"Non defined subobject for this object\00", align 1
@.str.1159 = private unnamed_addr constant [55 x i8] c"Bad unnumbered interface ID subobject: length %u != 12\00", align 1
@.str.1160 = private unnamed_addr constant [8 x i8] c": %s:%u\00", align 1
@dissect_subobj_unnumb_interfaceID.flags = internal constant [3 x ptr] [ptr @hf_pcep_subobj_flags_lpa, ptr @hf_pcep_subobj_flags_lpu, ptr null], align 16

; Function Attrs: null_pointer_is_valid sspstrong uwtable
define internal void @dissect_subobj_unnumb_interfaceID(ptr noundef %0, ptr noundef %1, ptr noundef %2, i32 noundef %3, i32 noundef %4, i32 noundef %5, i32 noundef %6) #0 {
  %8 = alloca ptr, align 8
  %9 = alloca ptr, align 8
  %10 = alloca ptr, align 8
  %11 = alloca i32, align 4
  %12 = alloca i32, align 4
  %13 = alloca i32, align 4
  %14 = alloca i32, align 4
  %15 = alloca ptr, align 8
  %16 = alloca ptr, align 8
  %17 = alloca i32, align 4
  %18 = alloca i32, align 4
  store ptr %0, ptr %8, align 8
  store ptr %1, ptr %9, align 8
  store ptr %2, ptr %10, align 8
  store i32 %3, ptr %11, align 4
  store i32 %4, ptr %12, align 4
  store i32 %5, ptr %13, align 4
  store i32 %6, ptr %14, align 4
  call void @llvm.lifetime.start.p0(i64 8, ptr %15) #4
  call void @llvm.lifetime.start.p0(i64 8, ptr %16) #4
  call void @llvm.lifetime.start.p0(i64 4, ptr %17) #4
  %19 = load ptr, ptr %8, align 8
  %20 = load i32, ptr @hf_PCEPF_SUBOBJ_UNNUM_INTERFACEID, align 4
  %21 = load ptr, ptr %10, align 8
  %22 = load i32, ptr %11, align 4
  %23 = load i32, ptr %14, align 4
  %24 = call ptr @proto_tree_add_item(ptr noundef %19, i32 noundef %20, ptr noundef %21, i32 noundef %22, i32 noundef %23, i32 noundef 0)
  store ptr %24, ptr %16, align 8
  %25 = load ptr, ptr %16, align 8
  %26 = load i32, ptr %13, align 4
  %27 = call ptr @proto_item_add_subtree(ptr noundef %25, i32 noundef %26)
  store ptr %27, ptr %15, align 8
  %28 = load i32, ptr %14, align 4
  %29 = icmp ne i32 %28, 12
  br i1 %29, label %30, label %35

30:                                               ; preds = %7
  %31 = load ptr, ptr %9, align 8
  %32 = load ptr, ptr %16, align 8
  %33 = load i32, ptr %14, align 4
  %34 = call ptr (ptr, ptr, ptr, ptr, ...) @expert_add_info_format(ptr noundef %31, ptr noundef %32, ptr noundef @ei_pcep_subobject_bad_length, ptr noundef @.str.1159, i32 noundef %33)
  store i32 1, ptr %18, align 4
  br label %161

35:                                               ; preds = %7
  %36 = load ptr, ptr %10, align 8
  %37 = load i32, ptr %11, align 4
  %38 = add i32 %37, 8
  %39 = call i32 @tvb_get_ntohl(ptr noundef %36, i32 noundef %38)
  store i32 %39, ptr %17, align 4
  %40 = load ptr, ptr %16, align 8
  %41 = load ptr, ptr %9, align 8
  %42 = getelementptr inbounds nuw %struct._packet_info, ptr %41, i32 0, i32 51
  %43 = load ptr, ptr %42, align 8
  %44 = load ptr, ptr %10, align 8
  %45 = load i32, ptr %11, align 4
  %46 = add i32 %45, 4
  %47 = call ptr @tvb_address_to_str(ptr noundef %43, ptr noundef %44, i32 noundef 2, i32 noundef %46)
  %48 = load i32, ptr %17, align 4
  call void (ptr, ptr, ...) @proto_item_append_text(ptr noundef %40, ptr noundef @.str.1160, ptr noundef %47, i32 noundef %48)
  %49 = load i32, ptr %12, align 4
  switch i32 %49, label %144 [
    i32 7, label %50
    i32 29, label %50
    i32 8, label %73
    i32 30, label %73
    i32 10, label %98
    i32 17, label %121
  ]

50:                                               ; preds = %35, %35
  %51 = load ptr, ptr %15, align 8
  %52 = load i32, ptr @hf_pcep_subobj_unnumb_interfaceID_l, align 4
  %53 = load ptr, ptr %10, align 8
  %54 = load i32, ptr %11, align 4
  %55 = call ptr @proto_tree_add_item(ptr noundef %51, i32 noundef %52, ptr noundef %53, i32 noundef %54, i32 noundef 1, i32 noundef 0)
  %56 = load ptr, ptr %15, align 8
  %57 = load i32, ptr @hf_PCEPF_SUBOBJ_7F, align 4
  %58 = load ptr, ptr %10, align 8
  %59 = load i32, ptr %11, align 4
  %60 = call ptr @proto_tree_add_item(ptr noundef %56, i32 noundef %57, ptr noundef %58, i32 noundef %59, i32 noundef 1, i32 noundef 0)
  %61 = load ptr, ptr %15, align 8
  %62 = load i32, ptr @hf_pcep_subobj_unnumb_interfaceID_length, align 4
  %63 = load ptr, ptr %10, align 8
  %64 = load i32, ptr %11, align 4
  %65 = add i32 %64, 1
  %66 = call ptr @proto_tree_add_item(ptr noundef %61, i32 noundef %62, ptr noundef %63, i32 noundef %65, i32 noundef 1, i32 noundef 0)
  %67 = load ptr, ptr %15, align 8
  %68 = load i32, ptr @hf_pcep_subobj_unnumb_interfaceID_reserved, align 4
  %69 = load ptr, ptr %10, align 8
  %70 = load i32, ptr %11, align 4
  %71 = add i32 %70, 2
  %72 = call ptr @proto_tree_add_item(ptr noundef %67, i32 noundef %68, ptr noundef %69, i32 noundef %71, i32 noundef 2, i32 noundef 0)
  br label %148

73:                                               ; preds = %35, %35
  %74 = load ptr, ptr %15, align 8
  %75 = load i32, ptr @hf_PCEPF_SUBOBJ, align 4
  %76 = load ptr, ptr %10, align 8
  %77 = load i32, ptr %11, align 4
  %78 = call ptr @proto_tree_add_item(ptr noundef %74, i32 noundef %75, ptr noundef %76, i32 noundef %77, i32 noundef 1, i32 noundef 0)
  %79 = load ptr, ptr %15, align 8
  %80 = load i32, ptr @hf_pcep_subobj_unnumb_interfaceID_length, align 4
  %81 = load ptr, ptr %10, align 8
  %82 = load i32, ptr %11, align 4
  %83 = add i32 %82, 1
  %84 = call ptr @proto_tree_add_item(ptr noundef %79, i32 noundef %80, ptr noundef %81, i32 noundef %83, i32 noundef 1, i32 noundef 0)
  %85 = load ptr, ptr %15, align 8
  %86 = load ptr, ptr %10, align 8
  %87 = load i32, ptr %11, align 4
  %88 = add i32 %87, 2
  %89 = load i32, ptr @hf_pcep_subobj_unnumb_interfaceID_flags, align 4
  %90 = load i32, ptr %13, align 4
  %91 = call ptr @proto_tree_add_bitmask(ptr noundef %85, ptr noundef %86, i32 noundef %88, i32 noundef %89, i32 noundef %90, ptr noundef @dissect_subobj_unnumb_interfaceID.flags, i32 noundef 0)
  %92 = load ptr, ptr %15, align 8
  %93 = load i32, ptr @hf_pcep_subobj_unnumb_interfaceID_reserved_rrobj, align 4
  %94 = load ptr, ptr %10, align 8
  %95 = load i32, ptr %11, align 4
  %96 = add i32 %95, 3
  %97 = call ptr @proto_tree_add_item(ptr noundef %92, i32 noundef %93, ptr noundef %94, i32 noundef %96, i32 noundef 1, i32 noundef 0)
  br label %148

98:                                               ; preds = %35
  %99 = load ptr, ptr %15, align 8
  %100 = load i32, ptr @hf_pcep_subobj_iro_unnumb_interfaceID_l, align 4
  %101 = load ptr, ptr %10, align 8
  %102 = load i32, ptr %11, align 4
  %103 = call ptr @proto_tree_add_item(ptr noundef %99, i32 noundef %100, ptr noundef %101, i32 noundef %102, i32 noundef 1, i32 noundef 0)
  %104 = load ptr, ptr %15, align 8
  %105 = load i32, ptr @hf_PCEPF_SUBOBJ_7F, align 4
  %106 = load ptr, ptr %10, align 8
  %107 = load i32, ptr %11, align 4
  %108 = call ptr @proto_tree_add_item(ptr noundef %104, i32 noundef %105, ptr noundef %106, i32 noundef %107, i32 noundef 1, i32 noundef 0)
  %109 = load ptr, ptr %15, align 8
  %110 = load i32, ptr @hf_pcep_subobj_unnumb_interfaceID_length, align 4
  %111 = load ptr, ptr %10, align 8
  %112 = load i32, ptr %11, align 4
  %113 = add i32 %112, 1
  %114 = call ptr @proto_tree_add_item(ptr noundef %109, i32 noundef %110, ptr noundef %111, i32 noundef %113, i32 noundef 1, i32 noundef 0)
  %115 = load ptr, ptr %15, align 8
  %116 = load i32, ptr @hf_pcep_subobj_unnumb_interfaceID_reserved, align 4
  %117 = load ptr, ptr %10, align 8
  %118 = load i32, ptr %11, align 4
  %119 = add i32 %118, 2
  %120 = call ptr @proto_tree_add_item(ptr noundef %115, i32 noundef %116, ptr noundef %117, i32 noundef %119, i32 noundef 2, i32 noundef 0)
  br label %148

121:                                              ; preds = %35
  %122 = load ptr, ptr %15, align 8
  %123 = load i32, ptr @hf_pcep_subobj_unnumb_interfaceID_x, align 4
  %124 = load ptr, ptr %10, align 8
  %125 = load i32, ptr %11, align 4
  %126 = call ptr @proto_tree_add_item(ptr noundef %122, i32 noundef %123, ptr noundef %124, i32 noundef %125, i32 noundef 1, i32 noundef 0)
  %127 = load ptr, ptr %15, align 8
  %128 = load i32, ptr @hf_PCEPF_SUBOBJ_XRO, align 4
  %129 = load ptr, ptr %10, align 8
  %130 = load i32, ptr %11, align 4
  %131 = call ptr @proto_tree_add_item(ptr noundef %127, i32 noundef %128, ptr noundef %129, i32 noundef %130, i32 noundef 1, i32 noundef 0)
  %132 = load ptr, ptr %15, align 8
  %133 = load i32, ptr @hf_pcep_subobj_unnumb_interfaceID_reserved_xroobj, align 4
  %134 = load ptr, ptr %10, align 8
  %135 = load i32, ptr %11, align 4
  %136 = add i32 %135, 2
  %137 = call ptr @proto_tree_add_item(ptr noundef %132, i32 noundef %133, ptr noundef %134, i32 noundef %136, i32 noundef 1, i32 noundef 0)
  %138 = load ptr, ptr %15, align 8
  %139 = load i32, ptr @hf_pcep_subobj_unnumb_interfaceID_attribute, align 4
  %140 = load ptr, ptr %10, align 8
  %141 = load i32, ptr %11, align 4
  %142 = add i32 %141, 3
  %143 = call ptr @proto_tree_add_item(ptr noundef %138, i32 noundef %139, ptr noundef %140, i32 noundef %142, i32 noundef 1, i32 noundef 0)
  br label %148

144:                                              ; preds = %35
  %145 = load ptr, ptr %9, align 8
  %146 = load ptr, ptr %16, align 8
  %147 = call ptr (ptr, ptr, ptr, ptr, ...) @expert_add_info_format(ptr noundef %145, ptr noundef %146, ptr noundef @ei_pcep_non_defined_subobject, ptr noundef @.str.723)
  br label %148

148:                                              ; preds = %144, %121, %98, %73, %50
  %149 = load ptr, ptr %15, align 8
  %150 = load i32, ptr @hf_pcep_subobj_unnumb_interfaceID_router_id, align 4
  %151 = load ptr, ptr %10, align 8
  %152 = load i32, ptr %11, align 4
  %153 = add i32 %152, 4
  %154 = call ptr @proto_tree_add_item(ptr noundef %149, i32 noundef %150, ptr noundef %151, i32 noundef %153, i32 noundef 4, i32 noundef 0)
  %155 = load ptr, ptr %15, align 8
  %156 = load i32, ptr @hf_pcep_subobj_unnumb_interfaceID_interface_id, align 4
  %157 = load ptr, ptr %10, align 8
  %158 = load i32, ptr %11, align 4
  %159 = add i32 %158, 8
  %160 = call ptr @proto_tree_add_item(ptr noundef %155, i32 noundef %156, ptr noundef %157, i32 noundef %159, i32 noundef 4, i32 noundef 0)
  store i32 0, ptr %18, align 4
  br label %161

161:                                              ; preds = %148, %30
  call void @llvm.lifetime.end.p0(i64 4, ptr %17) #4
  call void @llvm.lifetime.end.p0(i64 8, ptr %16) #4
  call void @llvm.lifetime.end.p0(i64 8, ptr %15) #4
  %162 = load i32, ptr %18, align 4
  switch i32 %162, label %164 [
    i32 0, label %163
    i32 1, label %163
  ]

163:                                              ; preds = %161, %161
  ret void

164:                                              ; preds = %161
  unreachable
}