; Function Attrs: null_pointer_is_valid sspstrong uwtable
define internal fastcc void @dissect_subobj_unnumb_interfaceID(ptr noundef %0, ptr noundef %1, ptr noundef %2, i32 noundef %3, i32 noundef %4, i32 noundef %5, i32 noundef range(i32 2, 256) %6) unnamed_addr #0 {
  %8 = load i32, ptr @hf_PCEPF_SUBOBJ_UNNUM_INTERFACEID, align 4
  %9 = tail call ptr @proto_tree_add_item(ptr noundef %0, i32 noundef %8, ptr noundef %2, i32 noundef %3, i32 noundef %6, i32 noundef 0)
  %10 = tail call ptr @proto_item_add_subtree(ptr noundef %9, i32 noundef %5)
  %.not = icmp eq i32 %6, 12
  br i1 %.not, label %13, label %11

11:                                               ; preds = %7
  %12 = tail call ptr (ptr, ptr, ptr, ptr, ...) @expert_add_info_format(ptr noundef %1, ptr noundef %9, ptr noundef nonnull @ei_pcep_subobject_bad_length, ptr noundef nonnull @.str.1159, i32 noundef %6)
  br label %72

13:                                               ; preds = %7
  %14 = add i32 %3, 8
  %15 = tail call i32 @tvb_get_ntohl(ptr noundef %2, i32 noundef %14)
  %16 = getelementptr inbounds nuw i8, ptr %1, i64 408
  %17 = load ptr, ptr %16, align 8
  %18 = add i32 %3, 4
  %19 = tail call ptr @tvb_address_to_str(ptr noundef %17, ptr noundef %2, i32 noundef 2, i32 noundef %18)
  tail call void (ptr, ptr, ...) @proto_item_append_text(ptr noundef %9, ptr noundef nonnull @.str.1160, ptr noundef %19, i32 noundef %15)
  switch i32 %4, label %65 [
    i32 7, label %20
    i32 29, label %20
    i32 8, label %31
    i32 30, label %31
    i32 10, label %43
    i32 17, label %54
  ]

20:                                               ; preds = %13, %13
  %21 = load i32, ptr @hf_pcep_subobj_unnumb_interfaceID_l, align 4
  %22 = tail call ptr @proto_tree_add_item(ptr noundef %10, i32 noundef %21, ptr noundef %2, i32 noundef %3, i32 noundef 1, i32 noundef 0)
  %23 = load i32, ptr @hf_PCEPF_SUBOBJ_7F, align 4
  %24 = tail call ptr @proto_tree_add_item(ptr noundef %10, i32 noundef %23, ptr noundef %2, i32 noundef %3, i32 noundef 1, i32 noundef 0)
  %25 = load i32, ptr @hf_pcep_subobj_unnumb_interfaceID_length, align 4
  %26 = add i32 %3, 1
  %27 = tail call ptr @proto_tree_add_item(ptr noundef %10, i32 noundef %25, ptr noundef %2, i32 noundef %26, i32 noundef 1, i32 noundef 0)
  %28 = load i32, ptr @hf_pcep_subobj_unnumb_interfaceID_reserved, align 4
  %29 = add i32 %3, 2
  %30 = tail call ptr @proto_tree_add_item(ptr noundef %10, i32 noundef %28, ptr noundef %2, i32 noundef %29, i32 noundef 2, i32 noundef 0)
  br label %67

31:                                               ; preds = %13, %13
  %32 = load i32, ptr @hf_PCEPF_SUBOBJ, align 4
  %33 = tail call ptr @proto_tree_add_item(ptr noundef %10, i32 noundef %32, ptr noundef %2, i32 noundef %3, i32 noundef 1, i32 noundef 0)
  %34 = load i32, ptr @hf_pcep_subobj_unnumb_interfaceID_length, align 4
  %35 = add i32 %3, 1
  %36 = tail call ptr @proto_tree_add_item(ptr noundef %10, i32 noundef %34, ptr noundef %2, i32 noundef %35, i32 noundef 1, i32 noundef 0)
  %37 = add i32 %3, 2
  %38 = load i32, ptr @hf_pcep_subobj_unnumb_interfaceID_flags, align 4
  %39 = tail call ptr @proto_tree_add_bitmask(ptr noundef %10, ptr noundef %2, i32 noundef %37, i32 noundef %38, i32 noundef %5, ptr noundef nonnull @dissect_subobj_unnumb_interfaceID.flags, i32 noundef 0)
  %40 = load i32, ptr @hf_pcep_subobj_unnumb_interfaceID_reserved_rrobj, align 4
  %41 = add i32 %3, 3
  %42 = tail call ptr @proto_tree_add_item(ptr noundef %10, i32 noundef %40, ptr noundef %2, i32 noundef %41, i32 noundef 1, i32 noundef 0)
  br label %67

43:                                               ; preds = %13
  %44 = load i32, ptr @hf_pcep_subobj_iro_unnumb_interfaceID_l, align 4
  %45 = tail call ptr @proto_tree_add_item(ptr noundef %10, i32 noundef %44, ptr noundef %2, i32 noundef %3, i32 noundef 1, i32 noundef 0)
  %46 = load i32, ptr @hf_PCEPF_SUBOBJ_7F, align 4
  %47 = tail call ptr @proto_tree_add_item(ptr noundef %10, i32 noundef %46, ptr noundef %2, i32 noundef %3, i32 noundef 1, i32 noundef 0)
  %48 = load i32, ptr @hf_pcep_subobj_unnumb_interfaceID_length, align 4
  %49 = add i32 %3, 1
  %50 = tail call ptr @proto_tree_add_item(ptr noundef %10, i32 noundef %48, ptr noundef %2, i32 noundef %49, i32 noundef 1, i32 noundef 0)
  %51 = load i32, ptr @hf_pcep_subobj_unnumb_interfaceID_reserved, align 4
  %52 = add i32 %3, 2
  %53 = tail call ptr @proto_tree_add_item(ptr noundef %10, i32 noundef %51, ptr noundef %2, i32 noundef %52, i32 noundef 2, i32 noundef 0)
  br label %67

54:                                               ; preds = %13
  %55 = load i32, ptr @hf_pcep_subobj_unnumb_interfaceID_x, align 4
  %56 = tail call ptr @proto_tree_add_item(ptr noundef %10, i32 noundef %55, ptr noundef %2, i32 noundef %3, i32 noundef 1, i32 noundef 0)
  %57 = load i32, ptr @hf_PCEPF_SUBOBJ_XRO, align 4
  %58 = tail call ptr @proto_tree_add_item(ptr noundef %10, i32 noundef %57, ptr noundef %2, i32 noundef %3, i32 noundef 1, i32 noundef 0)
  %59 = load i32, ptr @hf_pcep_subobj_unnumb_interfaceID_reserved_xroobj, align 4
  %60 = add i32 %3, 2
  %61 = tail call ptr @proto_tree_add_item(ptr noundef %10, i32 noundef %59, ptr noundef %2, i32 noundef %60, i32 noundef 1, i32 noundef 0)
  %62 = load i32, ptr @hf_pcep_subobj_unnumb_interfaceID_attribute, align 4
  %63 = add i32 %3, 3
  %64 = tail call ptr @proto_tree_add_item(ptr noundef %10, i32 noundef %62, ptr noundef %2, i32 noundef %63, i32 noundef 1, i32 noundef 0)
  br label %67

65:                                               ; preds = %13
  %66 = tail call ptr (ptr, ptr, ptr, ptr, ...) @expert_add_info_format(ptr noundef %1, ptr noundef %9, ptr noundef nonnull @ei_pcep_non_defined_subobject, ptr noundef nonnull @.str.723)
  br label %67

67:                                               ; preds = %65, %54, %43, %31, %20
  %68 = load i32, ptr @hf_pcep_subobj_unnumb_interfaceID_router_id, align 4
  %69 = tail call ptr @proto_tree_add_item(ptr noundef %10, i32 noundef %68, ptr noundef %2, i32 noundef %18, i32 noundef 4, i32 noundef 0)
  %70 = load i32, ptr @hf_pcep_subobj_unnumb_interfaceID_interface_id, align 4
  %71 = tail call ptr @proto_tree_add_item(ptr noundef %10, i32 noundef %70, ptr noundef %2, i32 noundef %14, i32 noundef 4, i32 noundef 0)
  br label %72

72:                                               ; preds = %67, %11
  ret void
}